; Function Attrs: nounwind uwtable
define internal fastcc void @SDL_CheckWindowDisplayScaleChanged(ptr noundef %0) unnamed_addr #0 {
  %2 = load ptr, ptr @_this, align 8
  %3 = getelementptr inbounds nuw i8, ptr %2, i64 144
  %4 = load ptr, ptr %3, align 8
  %.not = icmp eq ptr %4, null
  br i1 %.not, label %7, label %5

5:                                                ; preds = %1
  %6 = tail call float %4(ptr noundef nonnull %2, ptr noundef %0) #19
  br label %32

7:                                                ; preds = %1
  %8 = tail call float @SDL_GetWindowPixelDensity_REAL(ptr noundef %0)
  %9 = tail call i32 @SDL_GetDisplayForWindowPosition(ptr noundef %0)
  %10 = load ptr, ptr @_this, align 8
  %.not.i.i.i = icmp eq ptr %10, null
  br i1 %.not.i.i.i, label %16, label %.preheader.i.i.i

.preheader.i.i.i:                                 ; preds = %7
  %11 = getelementptr inbounds nuw i8, ptr %10, i64 800
  %12 = load i32, ptr %11, align 8
  %13 = icmp sgt i32 %12, 0
  br i1 %13, label %.lr.ph.i.i.i, label %._crit_edge.i.i.i

.lr.ph.i.i.i:                                     ; preds = %.preheader.i.i.i
  %14 = getelementptr inbounds nuw i8, ptr %10, i64 808
  %15 = load ptr, ptr %14, align 8
  %wide.trip.count.i.i.i = zext nneg i32 %12 to i64
  br label %18

16:                                               ; preds = %7
  %17 = tail call zeroext i1 (ptr, ...) @SDL_SetError_REAL(ptr noundef nonnull @.str.1) #19
  br label %SDL_GetDisplayContentScale_REAL.exit

18:                                               ; preds = %23, %.lr.ph.i.i.i
  %indvars.iv.i.i.i = phi i64 [ 0, %.lr.ph.i.i.i ], [ %indvars.iv.next.i.i.i, %23 ]
  %19 = getelementptr inbounds nuw ptr, ptr %15, i64 %indvars.iv.i.i.i
  %20 = load ptr, ptr %19, align 8
  %21 = load i32, ptr %20, align 8
  %22 = icmp eq i32 %9, %21
  br i1 %22, label %SDL_GetVideoDisplay.exit.i, label %23

23:                                               ; preds = %18
  %indvars.iv.next.i.i.i = add nuw nsw i64 %indvars.iv.i.i.i, 1
  %exitcond.not.i.i.i = icmp eq i64 %indvars.iv.next.i.i.i, %wide.trip.count.i.i.i
  br i1 %exitcond.not.i.i.i, label %._crit_edge.i.i.i, label %18, !llvm.loop !14

._crit_edge.i.i.i:                                ; preds = %23, %.preheader.i.i.i
  %24 = tail call zeroext i1 (ptr, ...) @SDL_SetError_REAL(ptr noundef nonnull @.str.11) #19
  br label %SDL_GetDisplayContentScale_REAL.exit

SDL_GetVideoDisplay.exit.i:                       ; preds = %18
  %25 = and i64 %indvars.iv.i.i.i, 4294967295
  %26 = getelementptr inbounds nuw ptr, ptr %15, i64 %25
  %27 = load ptr, ptr %26, align 8
  %.not.i = icmp eq ptr %27, null
  br i1 %.not.i, label %SDL_GetDisplayContentScale_REAL.exit, label %28

28:                                               ; preds = %SDL_GetVideoDisplay.exit.i
  %29 = getelementptr inbounds nuw i8, ptr %27, i64 88
  %30 = load float, ptr %29, align 8
  br label %SDL_GetDisplayContentScale_REAL.exit

SDL_GetDisplayContentScale_REAL.exit:             ; preds = %16, %._crit_edge.i.i.i, %SDL_GetVideoDisplay.exit.i, %28
  %.0.i = phi float [ %30, %28 ], [ 0.000000e+00, %SDL_GetVideoDisplay.exit.i ], [ 0.000000e+00, %._crit_edge.i.i.i ], [ 0.000000e+00, %16 ]
  %31 = fmul float %8, %.0.i
  br label %32

32:                                               ; preds = %SDL_GetDisplayContentScale_REAL.exit, %5
  %.0 = phi float [ %6, %5 ], [ %31, %SDL_GetDisplayContentScale_REAL.exit ]
  %33 = getelementptr inbounds nuw i8, ptr %0, i64 88
  %34 = load float, ptr %33, align 8
  %35 = fcmp une float %.0, %34
  br i1 %35, label %36, label %38

36:                                               ; preds = %32
  store float %.0, ptr %33, align 8
  %37 = tail call zeroext i1 @SDL_SendWindowEvent(ptr noundef nonnull %0, i32 noundef 532, i32 noundef 0, i32 noundef 0) #19
  br label %38

38:                                               ; preds = %36, %32
  ret void
}